target datalayout = "e-m:e-p270:32:32-p271:32:32-p272:64:64-i64:64-i128:128-f80:128-n8:16:32:64-S128"
target triple = "x86_64-pc-linux-gnu"

%struct.CVodeMemRec = type { double, ptr, ptr, i32, i32, i32, double, double, ptr, i32, ptr, ptr, i32, ptr, i32, i32, double, double, ptr, i32, i32, i32, ptr, ptr, ptr, i32, i32, ptr, ptr, ptr, i32, double, i32, i32, double, ptr, ptr, i32, ptr, ptr, i32, i32, i32, double, ptr, ptr, [13 x ptr], ptr, ptr, ptr, ptr, ptr, [13 x ptr], ptr, ptr, ptr, ptr, [13 x ptr], ptr, ptr, ptr, ptr, ptr, i32, [13 x ptr], ptr, ptr, ptr, ptr, ptr, i32, double, i32, i32, i32, i32, i32, double, double, double, double, double, double, double, double, [14 x double], [6 x double], [13 x double], double, double, double, double, double, double, double, double, double, double, double, i32, ptr, i32, i64, i32, i32, i32, i32, i32, double, double, double, i64, i64, i64, i64, i64, i64, i64, i64, i64, ptr, i64, i64, ptr, i64, i64, i64, i64, i64, i64, i32, i64, i64, i64, i64, i64, i64, double, double, double, ptr, ptr, ptr, ptr, ptr, i32, i32, i64, double, double, double, i32, double, i32, i32, i32, i32, i32, i32, i32, i32, i32, i32, i32, i32, i32, i32, i32, i32, ptr, ptr, ptr, i32, [6 x [4 x double]], i32, i64, ptr, i32, ptr, ptr, double, double, double, ptr, ptr, ptr, double, double, i32, i32, i64, ptr, i32, i32, ptr, i32 }
%struct.CVSpilsMemRec = type { i32, i32, i32, double, double, double, double, i32, i64, i64, i64, i64, i64, i64, i64, ptr, ptr, ptr, ptr, ptr, ptr, ptr, ptr, ptr, i32, ptr, ptr, i64 }

@.str = private unnamed_addr constant [8 x i8] c"CVSPGMR\00", align 1
@.str.13 = private unnamed_addr constant [13 x i8] c"CVSpgmrSolve\00", align 1
@.str.14 = private unnamed_addr constant [65 x i8] c"The Jacobian x vector routine failed in an unrecoverable manner.\00", align 1
@.str.15 = private unnamed_addr constant [68 x i8] c"The preconditioner solve routine failed in an unrecoverable manner.\00", align 1

; Function Attrs: nounwind uwtable
define internal i32 @CVSpgmrSolve(ptr noundef %0, ptr noundef %1, ptr noundef %2, ptr noundef %3, ptr noundef %4) #0 {
  %6 = alloca i32, align 4
  %7 = alloca ptr, align 8
  %8 = alloca ptr, align 8
  %9 = alloca ptr, align 8
  %10 = alloca ptr, align 8
  %11 = alloca ptr, align 8
  %12 = alloca double, align 8
  %13 = alloca double, align 8
  %14 = alloca ptr, align 8
  %15 = alloca ptr, align 8
  %16 = alloca i32, align 4
  %17 = alloca i32, align 4
  %18 = alloca i32, align 4
  %19 = alloca i32, align 4
  store ptr %0, ptr %7, align 8, !tbaa !9
  store ptr %1, ptr %8, align 8, !tbaa !63
  store ptr %2, ptr %9, align 8, !tbaa !63
  store ptr %3, ptr %10, align 8, !tbaa !63
  store ptr %4, ptr %11, align 8, !tbaa !63
  call void @llvm.lifetime.start.p0(i64 8, ptr %12) #5
  call void @llvm.lifetime.start.p0(i64 8, ptr %13) #5
  call void @llvm.lifetime.start.p0(i64 8, ptr %14) #5
  call void @llvm.lifetime.start.p0(i64 8, ptr %15) #5
  call void @llvm.lifetime.start.p0(i64 4, ptr %16) #5
  call void @llvm.lifetime.start.p0(i64 4, ptr %17) #5
  call void @llvm.lifetime.start.p0(i64 4, ptr %18) #5
  %20 = load ptr, ptr %7, align 8, !tbaa !9
  %21 = getelementptr inbounds nuw %struct.CVodeMemRec, ptr %20, i32 0, i32 144
  %22 = load ptr, ptr %21, align 8, !tbaa !55
  store ptr %22, ptr %14, align 8, !tbaa !31
  %23 = load ptr, ptr %14, align 8, !tbaa !31
  %24 = getelementptr inbounds nuw %struct.CVSpilsMemRec, ptr %23, i32 0, i32 19
  %25 = load ptr, ptr %24, align 8, !tbaa !54
  store ptr %25, ptr %15, align 8, !tbaa !52
  %26 = load ptr, ptr %14, align 8, !tbaa !31
  %27 = getelementptr inbounds nuw %struct.CVSpilsMemRec, ptr %26, i32 0, i32 4
  %28 = load double, ptr %27, align 8, !tbaa !46
  %29 = load ptr, ptr %7, align 8, !tbaa !9
  %30 = getelementptr inbounds nuw %struct.CVodeMemRec, ptr %29, i32 0, i32 86
  %31 = getelementptr inbounds [6 x double], ptr %30, i64 0, i64 4
  %32 = load double, ptr %31, align 8, !tbaa !67
  %33 = fmul double %28, %32
  %34 = load ptr, ptr %14, align 8, !tbaa !31
  %35 = getelementptr inbounds nuw %struct.CVSpilsMemRec, ptr %34, i32 0, i32 5
  store double %33, ptr %35, align 8, !tbaa !70
  %36 = load ptr, ptr %8, align 8, !tbaa !63
  %37 = load ptr, ptr %9, align 8, !tbaa !63
  %38 = call double @N_VWrmsNorm(ptr noundef %36, ptr noundef %37)
  store double %38, ptr %12, align 8, !tbaa !67
  %39 = load double, ptr %12, align 8, !tbaa !67
  %40 = load ptr, ptr %14, align 8, !tbaa !31
  %41 = getelementptr inbounds nuw %struct.CVSpilsMemRec, ptr %40, i32 0, i32 5
  %42 = load double, ptr %41, align 8, !tbaa !70
  %43 = fcmp ole double %39, %42
  br i1 %43, label %44, label %52

44:                                               ; preds = %5
  %45 = load ptr, ptr %7, align 8, !tbaa !9
  %46 = getelementptr inbounds nuw %struct.CVodeMemRec, ptr %45, i32 0, i32 99
  %47 = load i32, ptr %46, align 8, !tbaa !71
  %48 = icmp sgt i32 %47, 0
  br i1 %48, label %49, label %51

49:                                               ; preds = %44
  %50 = load ptr, ptr %8, align 8, !tbaa !63
  call void @N_VConst(double noundef 0.000000e+00, ptr noundef %50)
  br label %51

51:                                               ; preds = %49, %44
  store i32 0, ptr %6, align 4
  store i32 1, ptr %19, align 4
  br label %139

52:                                               ; preds = %5
  %53 = load ptr, ptr %10, align 8, !tbaa !63
  %54 = load ptr, ptr %14, align 8, !tbaa !31
  %55 = getelementptr inbounds nuw %struct.CVSpilsMemRec, ptr %54, i32 0, i32 17
  store ptr %53, ptr %55, align 8, !tbaa !72
  %56 = load ptr, ptr %11, align 8, !tbaa !63
  %57 = load ptr, ptr %14, align 8, !tbaa !31
  %58 = getelementptr inbounds nuw %struct.CVSpilsMemRec, ptr %57, i32 0, i32 18
  store ptr %56, ptr %58, align 8, !tbaa !73
  %59 = load ptr, ptr %14, align 8, !tbaa !31
  %60 = getelementptr inbounds nuw %struct.CVSpilsMemRec, ptr %59, i32 0, i32 5
  %61 = load double, ptr %60, align 8, !tbaa !70
  %62 = load ptr, ptr %14, align 8, !tbaa !31
  %63 = getelementptr inbounds nuw %struct.CVSpilsMemRec, ptr %62, i32 0, i32 3
  %64 = load double, ptr %63, align 8, !tbaa !51
  %65 = fmul double %61, %64
  %66 = load ptr, ptr %14, align 8, !tbaa !31
  %67 = getelementptr inbounds nuw %struct.CVSpilsMemRec, ptr %66, i32 0, i32 6
  store double %65, ptr %67, align 8, !tbaa !74
  %68 = load ptr, ptr %14, align 8, !tbaa !31
  %69 = getelementptr inbounds nuw %struct.CVSpilsMemRec, ptr %68, i32 0, i32 16
  %70 = load ptr, ptr %69, align 8, !tbaa !50
  call void @N_VConst(double noundef 0.000000e+00, ptr noundef %70)
  %71 = load ptr, ptr %15, align 8, !tbaa !52
  %72 = load ptr, ptr %7, align 8, !tbaa !9
  %73 = load ptr, ptr %14, align 8, !tbaa !31
  %74 = getelementptr inbounds nuw %struct.CVSpilsMemRec, ptr %73, i32 0, i32 16
  %75 = load ptr, ptr %74, align 8, !tbaa !50
  %76 = load ptr, ptr %8, align 8, !tbaa !63
  %77 = load ptr, ptr %14, align 8, !tbaa !31
  %78 = getelementptr inbounds nuw %struct.CVSpilsMemRec, ptr %77, i32 0, i32 1
  %79 = load i32, ptr %78, align 4, !tbaa !35
  %80 = load ptr, ptr %14, align 8, !tbaa !31
  %81 = getelementptr inbounds nuw %struct.CVSpilsMemRec, ptr %80, i32 0, i32 2
  %82 = load i32, ptr %81, align 8, !tbaa !45
  %83 = load ptr, ptr %14, align 8, !tbaa !31
  %84 = getelementptr inbounds nuw %struct.CVSpilsMemRec, ptr %83, i32 0, i32 6
  %85 = load double, ptr %84, align 8, !tbaa !74
  %86 = load ptr, ptr %7, align 8, !tbaa !9
  %87 = load ptr, ptr %9, align 8, !tbaa !63
  %88 = load ptr, ptr %9, align 8, !tbaa !63
  %89 = call i32 @SpgmrSolve(ptr noundef %71, ptr noundef %72, ptr noundef %75, ptr noundef %76, i32 noundef %79, i32 noundef %82, double noundef %85, i32 noundef 0, ptr noundef %86, ptr noundef %87, ptr noundef %88, ptr noundef @CVSpilsAtimes, ptr noundef @CVSpilsPSolve, ptr noundef %13, ptr noundef %16, ptr noundef %17)
  store i32 %89, ptr %18, align 4, !tbaa !7
  %90 = load ptr, ptr %14, align 8, !tbaa !31
  %91 = getelementptr inbounds nuw %struct.CVSpilsMemRec, ptr %90, i32 0, i32 16
  %92 = load ptr, ptr %91, align 8, !tbaa !50
  %93 = load ptr, ptr %8, align 8, !tbaa !63
  call void @N_VScale(double noundef 1.000000e+00, ptr noundef %92, ptr noundef %93)
  %94 = load i32, ptr %16, align 4, !tbaa !7
  %95 = sext i32 %94 to i64
  %96 = load ptr, ptr %14, align 8, !tbaa !31
  %97 = getelementptr inbounds nuw %struct.CVSpilsMemRec, ptr %96, i32 0, i32 10
  %98 = load i64, ptr %97, align 8, !tbaa !59
  %99 = add nsw i64 %98, %95
  store i64 %99, ptr %97, align 8, !tbaa !59
  %100 = load i32, ptr %17, align 4, !tbaa !7
  %101 = sext i32 %100 to i64
  %102 = load ptr, ptr %14, align 8, !tbaa !31
  %103 = getelementptr inbounds nuw %struct.CVSpilsMemRec, ptr %102, i32 0, i32 11
  %104 = load i64, ptr %103, align 8, !tbaa !58
  %105 = add nsw i64 %104, %101
  store i64 %105, ptr %103, align 8, !tbaa !58
  %106 = load i32, ptr %18, align 4, !tbaa !7
  %107 = icmp ne i32 %106, 0
  br i1 %107, label %108, label %113

108:                                              ; preds = %52
  %109 = load ptr, ptr %14, align 8, !tbaa !31
  %110 = getelementptr inbounds nuw %struct.CVSpilsMemRec, ptr %109, i32 0, i32 12
  %111 = load i64, ptr %110, align 8, !tbaa !57
  %112 = add nsw i64 %111, 1
  store i64 %112, ptr %110, align 8, !tbaa !57
  br label %113

113:                                              ; preds = %108, %52
  %114 = load i32, ptr %18, align 4, !tbaa !7
  %115 = sext i32 %114 to i64
  %116 = load ptr, ptr %14, align 8, !tbaa !31
  %117 = getelementptr inbounds nuw %struct.CVSpilsMemRec, ptr %116, i32 0, i32 27
  store i64 %115, ptr %117, align 8, !tbaa !47
  %118 = load i32, ptr %18, align 4, !tbaa !7
  switch i32 %118, label %138 [
    i32 0, label %119
    i32 1, label %120
    i32 2, label %127
    i32 3, label %128
    i32 4, label %129
    i32 5, label %130
    i32 -1, label %131
    i32 -2, label %132
    i32 -3, label %134
    i32 -4, label %136
    i32 -5, label %137
  ]

119:                                              ; preds = %113
  store i32 0, ptr %6, align 4
  store i32 1, ptr %19, align 4
  br label %139

120:                                              ; preds = %113
  %121 = load ptr, ptr %7, align 8, !tbaa !9
  %122 = getelementptr inbounds nuw %struct.CVodeMemRec, ptr %121, i32 0, i32 99
  %123 = load i32, ptr %122, align 8, !tbaa !71
  %124 = icmp eq i32 %123, 0
  br i1 %124, label %125, label %126

125:                                              ; preds = %120
  store i32 0, ptr %6, align 4
  store i32 1, ptr %19, align 4
  br label %139

126:                                              ; preds = %120
  store i32 1, ptr %6, align 4
  store i32 1, ptr %19, align 4
  br label %139

127:                                              ; preds = %113
  store i32 1, ptr %6, align 4
  store i32 1, ptr %19, align 4
  br label %139

128:                                              ; preds = %113
  store i32 1, ptr %6, align 4
  store i32 1, ptr %19, align 4
  br label %139

129:                                              ; preds = %113
  store i32 1, ptr %6, align 4
  store i32 1, ptr %19, align 4
  br label %139

130:                                              ; preds = %113
  store i32 1, ptr %6, align 4
  store i32 1, ptr %19, align 4
  br label %139

131:                                              ; preds = %113
  store i32 -1, ptr %6, align 4
  store i32 1, ptr %19, align 4
  br label %139

132:                                              ; preds = %113
  %133 = load ptr, ptr %7, align 8, !tbaa !9
  call void (ptr, i32, ptr, ptr, ptr, ...) @cvProcessError(ptr noundef %133, i32 noundef -2, ptr noundef @.str, ptr noundef @.str.13, ptr noundef @.str.14)
  store i32 -1, ptr %6, align 4
  store i32 1, ptr %19, align 4
  br label %139

134:                                              ; preds = %113
  %135 = load ptr, ptr %7, align 8, !tbaa !9
  call void (ptr, i32, ptr, ptr, ptr, ...) @cvProcessError(ptr noundef %135, i32 noundef -3, ptr noundef @.str, ptr noundef @.str.13, ptr noundef @.str.15)
  store i32 -1, ptr %6, align 4
  store i32 1, ptr %19, align 4
  br label %139

136:                                              ; preds = %113
  store i32 -1, ptr %6, align 4
  store i32 1, ptr %19, align 4
  br label %139

137:                                              ; preds = %113
  store i32 -1, ptr %6, align 4
  store i32 1, ptr %19, align 4
  br label %139

138:                                              ; preds = %113
  store i32 0, ptr %6, align 4
  store i32 1, ptr %19, align 4
  br label %139

139:                                              ; preds = %138, %137, %136, %134, %132, %131, %130, %129, %128, %127, %126, %125, %119, %51
  call void @llvm.lifetime.end.p0(i64 4, ptr %18) #5
  call void @llvm.lifetime.end.p0(i64 4, ptr %17) #5
  call void @llvm.lifetime.end.p0(i64 4, ptr %16) #5
  call void @llvm.lifetime.end.p0(i64 8, ptr %15) #5
  call void @llvm.lifetime.end.p0(i64 8, ptr %14) #5
  call void @llvm.lifetime.end.p0(i64 8, ptr %13) #5
  call void @llvm.lifetime.end.p0(i64 8, ptr %12) #5
  %140 = load i32, ptr %6, align 4
  ret i32 %140
}