; Function Attrs: nounwind uwtable
define internal range(i32 -1, 2) i32 @CVSpgmrSolve(ptr noundef %0, ptr noundef %1, ptr noundef %2, ptr noundef %3, ptr noundef %4) #0 {
  %6 = alloca double, align 8
  %7 = alloca i32, align 4
  %8 = alloca i32, align 4
  call void @llvm.lifetime.start.p0(i64 8, ptr nonnull %6) #7
  call void @llvm.lifetime.start.p0(i64 4, ptr nonnull %7) #7
  call void @llvm.lifetime.start.p0(i64 4, ptr nonnull %8) #7
  %9 = getelementptr inbounds nuw i8, ptr %0, i64 1696
  %10 = load ptr, ptr %9, align 8, !tbaa !42
  %11 = getelementptr inbounds nuw i8, ptr %10, i64 144
  %12 = load ptr, ptr %11, align 8, !tbaa !41
  %13 = getelementptr inbounds nuw i8, ptr %10, i64 24
  %14 = load double, ptr %13, align 8, !tbaa !35
  %15 = getelementptr inbounds nuw i8, ptr %0, i64 1144
  %16 = load double, ptr %15, align 8, !tbaa !54
  %17 = fmul double %14, %16
  %18 = getelementptr inbounds nuw i8, ptr %10, i64 32
  store double %17, ptr %18, align 8, !tbaa !55
  %19 = tail call double @N_VWrmsNorm(ptr noundef %1, ptr noundef %2) #7
  %20 = load double, ptr %18, align 8, !tbaa !55
  %21 = fcmp ugt double %19, %20
  br i1 %21, label %27, label %22

22:                                               ; preds = %5
  %23 = getelementptr inbounds nuw i8, ptr %0, i64 1352
  %24 = load i32, ptr %23, align 8, !tbaa !56
  %25 = icmp sgt i32 %24, 0
  br i1 %25, label %26, label %69

26:                                               ; preds = %22
  tail call void @N_VConst(double noundef 0.000000e+00, ptr noundef %1) #7
  br label %69

27:                                               ; preds = %5
  %28 = getelementptr inbounds nuw i8, ptr %10, i64 128
  store ptr %3, ptr %28, align 8, !tbaa !57
  %29 = getelementptr inbounds nuw i8, ptr %10, i64 136
  store ptr %4, ptr %29, align 8, !tbaa !58
  %30 = getelementptr inbounds nuw i8, ptr %10, i64 16
  %31 = load double, ptr %30, align 8, !tbaa !40
  %32 = fmul double %20, %31
  %33 = getelementptr inbounds nuw i8, ptr %10, i64 40
  store double %32, ptr %33, align 8, !tbaa !59
  %34 = getelementptr inbounds nuw i8, ptr %10, i64 120
  %35 = load ptr, ptr %34, align 8, !tbaa !39
  tail call void @N_VConst(double noundef 0.000000e+00, ptr noundef %35) #7
  %36 = load ptr, ptr %34, align 8, !tbaa !39
  %37 = getelementptr inbounds nuw i8, ptr %10, i64 4
  %38 = load i32, ptr %37, align 4, !tbaa !29
  %39 = getelementptr inbounds nuw i8, ptr %10, i64 8
  %40 = load i32, ptr %39, align 8, !tbaa !34
  %41 = load double, ptr %33, align 8, !tbaa !59
  %42 = call i32 @SpgmrSolve(ptr noundef %12, ptr noundef nonnull %0, ptr noundef %36, ptr noundef %1, i32 noundef %38, i32 noundef %40, double noundef %41, i32 noundef 0, ptr noundef nonnull %0, ptr noundef %2, ptr noundef %2, ptr noundef nonnull @CVSpilsAtimes, ptr noundef nonnull @CVSpilsPSolve, ptr noundef nonnull %6, ptr noundef nonnull %7, ptr noundef nonnull %8) #7
  %43 = load ptr, ptr %34, align 8, !tbaa !39
  call void @N_VScale(double noundef 1.000000e+00, ptr noundef %43, ptr noundef %1) #7
  %44 = load i32, ptr %7, align 4, !tbaa !51
  %45 = sext i32 %44 to i64
  %46 = getelementptr inbounds nuw i8, ptr %10, i64 72
  %47 = load i64, ptr %46, align 8, !tbaa !60
  %48 = add nsw i64 %47, %45
  store i64 %48, ptr %46, align 8, !tbaa !60
  %49 = load i32, ptr %8, align 4, !tbaa !51
  %50 = sext i32 %49 to i64
  %51 = getelementptr inbounds nuw i8, ptr %10, i64 80
  %52 = load i64, ptr %51, align 8, !tbaa !61
  %53 = add nsw i64 %52, %50
  store i64 %53, ptr %51, align 8, !tbaa !61
  %.not = icmp eq i32 %42, 0
  br i1 %.not, label %.thread, label %55

.thread:                                          ; preds = %27
  %54 = getelementptr inbounds nuw i8, ptr %10, i64 208
  store i64 0, ptr %54, align 8, !tbaa !36
  br label %68

55:                                               ; preds = %27
  %56 = getelementptr inbounds nuw i8, ptr %10, i64 88
  %57 = load i64, ptr %56, align 8, !tbaa !62
  %58 = add nsw i64 %57, 1
  store i64 %58, ptr %56, align 8, !tbaa !62
  %59 = sext i32 %42 to i64
  %60 = getelementptr inbounds nuw i8, ptr %10, i64 208
  store i64 %59, ptr %60, align 8, !tbaa !36
  switch i32 %42, label %68 [
    i32 -5, label %65
    i32 1, label %61
    i32 2, label %69
    i32 3, label %69
    i32 4, label %69
    i32 5, label %69
    i32 -1, label %65
    i32 -2, label %66
    i32 -3, label %67
    i32 -4, label %65
  ]

61:                                               ; preds = %55
  %62 = getelementptr inbounds nuw i8, ptr %0, i64 1352
  %63 = load i32, ptr %62, align 8, !tbaa !56
  %64 = icmp ne i32 %63, 0
  %. = zext i1 %64 to i32
  br label %69

65:                                               ; preds = %55, %55, %55
  br label %69

66:                                               ; preds = %55
  call void (ptr, i32, ptr, ptr, ptr, ...) @cvProcessError(ptr noundef nonnull %0, i32 noundef -2, ptr noundef nonnull @.str, ptr noundef nonnull @.str.13, ptr noundef nonnull @.str.14) #7
  br label %69

67:                                               ; preds = %55
  call void (ptr, i32, ptr, ptr, ptr, ...) @cvProcessError(ptr noundef nonnull %0, i32 noundef -3, ptr noundef nonnull @.str, ptr noundef nonnull @.str.13, ptr noundef nonnull @.str.15) #7
  br label %69

68:                                               ; preds = %.thread, %55
  br label %69

69:                                               ; preds = %55, %55, %55, %55, %61, %22, %26, %68, %67, %66, %65
  %.0 = phi i32 [ 0, %68 ], [ -1, %67 ], [ -1, %66 ], [ -1, %65 ], [ 0, %26 ], [ 0, %22 ], [ %., %61 ], [ 1, %55 ], [ 1, %55 ], [ 1, %55 ], [ 1, %55 ]
  call void @llvm.lifetime.end.p0(i64 4, ptr nonnull %8) #7
  call void @llvm.lifetime.end.p0(i64 4, ptr nonnull %7) #7
  call void @llvm.lifetime.end.p0(i64 8, ptr nonnull %6) #7
  ret i32 %.0
}